target datalayout = "e-m:e-p270:32:32-p271:32:32-p272:64:64-i64:64-i128:128-f80:128-n8:16:32:64-S128"
target triple = "x86_64-pc-linux-gnu"

%class.BigInteger = type { i32, %class.BigUnsigned }
%class.BigUnsigned = type { %class.NumberlikeArray }
%class.NumberlikeArray = type { i32, i32, ptr }

@_ZTIPKc = external constant ptr
@.str.6 = private unnamed_addr constant [81 x i8] c"BigInteger::to<Primitive>: Cannot convert a negative integer to an unsigned type\00", align 1
@.str.7 = private unnamed_addr constant [74 x i8] c"BigUnsigned::to<Primitive>: Value is too big to fit in the requested type\00", align 1

; Function Attrs: mustprogress uwtable
define linkonce_odr noundef i32 @_ZNK11BigUnsigned18convertToPrimitiveIjEET_v(ptr noundef nonnull align 8 dereferenceable(16) %0) #0 comdat align 2 {
  %2 = alloca i32, align 4
  %3 = alloca ptr, align 8
  %4 = alloca i32, align 4
  %5 = alloca i32, align 4
  store ptr %0, ptr %3, align 8, !tbaa !18
  %6 = load ptr, ptr %3, align 8
  %7 = getelementptr inbounds nuw %class.NumberlikeArray, ptr %6, i32 0, i32 1
  %8 = load i32, ptr %7, align 4, !tbaa !32
  %9 = icmp eq i32 %8, 0
  br i1 %9, label %10, label %11

10:                                               ; preds = %1
  store i32 0, ptr %2, align 4
  br label %37

11:                                               ; preds = %1
  %12 = getelementptr inbounds nuw %class.NumberlikeArray, ptr %6, i32 0, i32 1
  %13 = load i32, ptr %12, align 4, !tbaa !32
  %14 = icmp eq i32 %13, 1
  br i1 %14, label %15, label %34

15:                                               ; preds = %11
  call void @llvm.lifetime.start.p0(i64 4, ptr %4) #9
  %16 = getelementptr inbounds nuw %class.NumberlikeArray, ptr %6, i32 0, i32 2
  %17 = load ptr, ptr %16, align 8, !tbaa !27
  %18 = getelementptr inbounds i64, ptr %17, i64 0
  %19 = load i64, ptr %18, align 8, !tbaa !28
  %20 = trunc i64 %19 to i32
  store i32 %20, ptr %4, align 4, !tbaa !21
  %21 = load i32, ptr %4, align 4, !tbaa !21
  %22 = zext i32 %21 to i64
  %23 = getelementptr inbounds nuw %class.NumberlikeArray, ptr %6, i32 0, i32 2
  %24 = load ptr, ptr %23, align 8, !tbaa !27
  %25 = getelementptr inbounds i64, ptr %24, i64 0
  %26 = load i64, ptr %25, align 8, !tbaa !28
  %27 = icmp eq i64 %22, %26
  br i1 %27, label %28, label %30

28:                                               ; preds = %15
  %29 = load i32, ptr %4, align 4, !tbaa !21
  store i32 %29, ptr %2, align 4
  store i32 1, ptr %5, align 4
  br label %31

30:                                               ; preds = %15
  store i32 0, ptr %5, align 4
  br label %31

31:                                               ; preds = %30, %28
  call void @llvm.lifetime.end.p0(i64 4, ptr %4) #9
  %32 = load i32, ptr %5, align 4
  switch i32 %32, label %39 [
    i32 0, label %33
    i32 1, label %37
  ]

33:                                               ; preds = %31
  br label %34

34:                                               ; preds = %33, %11
  br label %35

35:                                               ; preds = %34
  %36 = call ptr @__cxa_allocate_exception(i64 8) #9
  store ptr @.str.7, ptr %36, align 16, !tbaa !23
  call void @__cxa_throw(ptr %36, ptr @_ZTIPKc, ptr null) #10
  unreachable

37:                                               ; preds = %31, %10
  %38 = load i32, ptr %2, align 4
  ret i32 %38

39:                                               ; preds = %31
  unreachable
}

; Function Attrs: inlinehint mustprogress uwtable
define linkonce_odr noundef i32 @_Z35convertBigUnsignedToPrimitiveAccessIjET_RK11BigUnsigned(ptr noundef nonnull align 8 dereferenceable(16) %0) #8 comdat {
  %2 = alloca ptr, align 8
  store ptr %0, ptr %2, align 8, !tbaa !18
  %3 = load ptr, ptr %2, align 8, !tbaa !18
  %4 = call noundef i32 @_ZNK11BigUnsigned18convertToPrimitiveIjEET_v(ptr noundef nonnull align 8 dereferenceable(16) %3)
  ret i32 %4
}

; Function Attrs: mustprogress uwtable
define linkonce_odr noundef i32 @_ZNK10BigInteger26convertToUnsignedPrimitiveIjEET_v(ptr noundef nonnull align 8 dereferenceable(24) %0) #0 comdat align 2 {
  %2 = alloca ptr, align 8
  store ptr %0, ptr %2, align 8, !tbaa !6
  %3 = load ptr, ptr %2, align 8
  %4 = getelementptr inbounds nuw %class.BigInteger, ptr %3, i32 0, i32 0
  %5 = load i32, ptr %4, align 8, !tbaa !11
  %6 = icmp eq i32 %5, -1
  br i1 %6, label %7, label %9

7:                                                ; preds = %1
  %8 = call ptr @__cxa_allocate_exception(i64 8) #9
  store ptr @.str.6, ptr %8, align 16, !tbaa !23
  call void @__cxa_throw(ptr %8, ptr @_ZTIPKc, ptr null) #10
  unreachable

9:                                                ; preds = %1
  %10 = getelementptr inbounds nuw %class.BigInteger, ptr %3, i32 0, i32 1
  %11 = call noundef i32 @_Z35convertBigUnsignedToPrimitiveAccessIjET_RK11BigUnsigned(ptr noundef nonnull align 8 dereferenceable(16) %10)
  ret i32 %11
}

; Function Attrs: mustprogress uwtable
define noundef i32 @_ZNK10BigInteger13toUnsignedIntEv(ptr noundef nonnull align 8 dereferenceable(24) %0) #0 align 2 {
  %2 = alloca ptr, align 8
  store ptr %0, ptr %2, align 8, !tbaa !6
  %3 = load ptr, ptr %2, align 8
  %4 = call noundef i32 @_ZNK10BigInteger26convertToUnsignedPrimitiveIjEET_v(ptr noundef nonnull align 8 dereferenceable(24) %3)
  ret i32 %4
}